; Function Attrs: mustprogress uwtable
define hidden void @_ZN4cvc58internal4prop24ProofPostprocessCallbackC2ERNS0_3EnvEPNS1_14ProofCnfStreamE(ptr noundef nonnull align 8 dereferenceable(80) %this, ptr noundef nonnull align 1 %env, ptr noundef %proofCnfStream) unnamed_addr #3 align 2 personality ptr @__gxx_personality_v0 {
entry:
  tail call void @_ZN4cvc58internal6EnvObjC2ERNS0_3EnvE(ptr noundef nonnull align 8 dereferenceable(16) %this, ptr noundef nonnull align 1 %env)
  %0 = getelementptr inbounds i8, ptr %this, i64 16
  tail call void @_ZN4cvc58internal24ProofNodeUpdaterCallbackC2Ev(ptr noundef nonnull align 8 dereferenceable(8) %0)
  store ptr getelementptr inbounds ({ [6 x ptr], [8 x ptr] }, ptr @_ZTVN4cvc58internal4prop24ProofPostprocessCallbackE, i64 0, i32 0, i64 2), ptr %this, align 8
  store ptr getelementptr inbounds ({ [6 x ptr], [8 x ptr] }, ptr @_ZTVN4cvc58internal4prop24ProofPostprocessCallbackE, i64 0, i32 1, i64 2), ptr %0, align 8
  %d_proofCnfStream = getelementptr inbounds i8, ptr %this, i64 24
  store ptr %proofCnfStream, ptr %d_proofCnfStream, align 8
  %1 = getelementptr inbounds i8, ptr %this, i64 40
  store i32 0, ptr %1, align 8
  %_M_parent.i.i.i.i.i = getelementptr inbounds i8, ptr %this, i64 48
  store ptr null, ptr %_M_parent.i.i.i.i.i, align 8
  %_M_left.i.i.i.i.i = getelementptr inbounds i8, ptr %this, i64 56
  store ptr %1, ptr %_M_left.i.i.i.i.i, align 8
  %_M_right.i.i.i.i.i = getelementptr inbounds i8, ptr %this, i64 64
  store ptr %1, ptr %_M_right.i.i.i.i.i, align 8
  %_M_node_count.i.i.i.i.i = getelementptr inbounds i8, ptr %this, i64 72
  store i64 0, ptr %_M_node_count.i.i.i.i.i, align 8
  ret void
}